target datalayout = "e-m:e-p270:32:32-p271:32:32-p272:64:64-i64:64-i128:128-f80:128-n8:16:32:64-S128"
target triple = "x86_64-pc-linux-gnu"

%struct._DOT11DECRYPT_SEC_ASSOCIATION_ID = type { [6 x i8], [6 x i8] }
%struct._DOT11DECRYPT_SEC_ASSOCIATION = type { ptr, %struct._DOT11DECRYPT_SEC_ASSOCIATION_ID, ptr, i8, i8, %struct.anon }
%struct.anon = type { i8, [32 x i8], i32, i32, i32, [88 x i8], i32 }
%struct._DOT11DECRYPT_CONTEXT = type { ptr, [64 x %struct._DOT11DECRYPT_KEY_ITEM], i64, [32 x i8], i64 }
%struct._DOT11DECRYPT_KEY_ITEM = type { i8, %union.DOT11DECRYPT_KEY_ITEMDATA, %struct.DOT11DECRYPT_KEY_ITEMDATA_TK, %struct.DOT11DECRYPT_KEY_ITEMDATA_MSK, %struct.DOT11DECRYPT_KEY_ITEMDATA_PWD }
%union.DOT11DECRYPT_KEY_ITEMDATA = type { %struct.DOT11DECRYPT_KEY_ITEMDATA_WEP, [104 x i8] }
%struct.DOT11DECRYPT_KEY_ITEMDATA_WEP = type { [32 x i8], i64 }
%struct.DOT11DECRYPT_KEY_ITEMDATA_TK = type { [32 x i8], i8 }
%struct.DOT11DECRYPT_KEY_ITEMDATA_MSK = type { [128 x i8], i8 }
%struct.DOT11DECRYPT_KEY_ITEMDATA_PWD = type { [63 x i8], i64, [32 x i8], i64 }
%struct.DOT11DECRYPT_KEY_ITEMDATA_WPA = type { [48 x i8], [88 x i8], i8, i8, i8, i8 }

@.str = private unnamed_addr constant [13 x i8] c"dot11decrypt\00", align 1
@.str.1 = private unnamed_addr constant [26 x i8] c"epan/crypt/dot11decrypt.c\00", align 1
@__func__.Dot11DecryptFtDerivePtk = private unnamed_addr constant [24 x i8] c"Dot11DecryptFtDerivePtk\00", align 1
@.str.50 = private unnamed_addr constant [36 x i8] c"Invalid input for FT PTK derivation\00", align 1
@.str.51 = private unnamed_addr constant [22 x i8] c"Invalid akm or cipher\00", align 1

; Function Attrs: nounwind null_pointer_is_valid sspstrong uwtable
define internal ptr @Dot11DecryptGetXXKeyFromMSK(ptr noundef %0, i64 noundef %1, i32 noundef %2, ptr noundef %3) #4 {
  %5 = alloca ptr, align 8
  %6 = alloca ptr, align 8
  %7 = alloca i64, align 8
  %8 = alloca i32, align 4
  %9 = alloca ptr, align 8
  store ptr %0, ptr %6, align 8
  store i64 %1, ptr %7, align 8
  store i32 %2, ptr %8, align 4
  store ptr %3, ptr %9, align 8
  %10 = load ptr, ptr %9, align 8
  %11 = icmp ne ptr %10, null
  br i1 %11, label %13, label %12

12:                                               ; preds = %4
  store ptr null, ptr %5, align 8
  br label %31

13:                                               ; preds = %4
  %14 = load i32, ptr %8, align 4
  switch i32 %14, label %30 [
    i32 3, label %15
    i32 13, label %23
  ]

15:                                               ; preds = %13
  %16 = load i64, ptr %7, align 8
  %17 = icmp ult i64 %16, 64
  br i1 %17, label %18, label %19

18:                                               ; preds = %15
  store ptr null, ptr %5, align 8
  br label %31

19:                                               ; preds = %15
  %20 = load ptr, ptr %9, align 8
  store i64 32, ptr %20, align 8
  %21 = load ptr, ptr %6, align 8
  %22 = getelementptr i8, ptr %21, i64 32
  store ptr %22, ptr %5, align 8
  br label %31

23:                                               ; preds = %13
  %24 = load i64, ptr %7, align 8
  %25 = icmp ult i64 %24, 48
  br i1 %25, label %26, label %27

26:                                               ; preds = %23
  store ptr null, ptr %5, align 8
  br label %31

27:                                               ; preds = %23
  %28 = load ptr, ptr %9, align 8
  store i64 48, ptr %28, align 8
  %29 = load ptr, ptr %6, align 8
  store ptr %29, ptr %5, align 8
  br label %31

30:                                               ; preds = %13
  store ptr null, ptr %5, align 8
  br label %31

31:                                               ; preds = %30, %27, %26, %19, %18, %12
  %32 = load ptr, ptr %5, align 8
  ret ptr %32
}

; Function Attrs: nounwind null_pointer_is_valid sspstrong uwtable
define internal i32 @Dot11DecryptGetHashAlgoFromAkm(i32 noundef %0) #4 {
  %2 = alloca i32, align 4
  %3 = alloca i32, align 4
  store i32 %0, ptr %2, align 4
  call void @llvm.lifetime.start.p0(i64 4, ptr %3) #16
  store i32 -1, ptr %3, align 4
  %4 = load i32, ptr %2, align 4
  switch i32 %4, label %8 [
    i32 1, label %5
    i32 2, label %5
    i32 3, label %6
    i32 4, label %6
    i32 5, label %6
    i32 6, label %6
    i32 7, label %6
    i32 8, label %6
    i32 9, label %6
    i32 10, label %6
    i32 11, label %6
    i32 18, label %6
    i32 12, label %7
    i32 13, label %7
  ]

5:                                                ; preds = %1, %1
  store i32 2, ptr %3, align 4
  br label %9

6:                                                ; preds = %1, %1, %1, %1, %1, %1, %1, %1, %1, %1
  store i32 8, ptr %3, align 4
  br label %9

7:                                                ; preds = %1, %1
  store i32 9, ptr %3, align 4
  br label %9

8:                                                ; preds = %1
  br label %9

9:                                                ; preds = %8, %7, %6, %5
  %10 = load i32, ptr %3, align 4
  call void @llvm.lifetime.end.p0(i64 4, ptr %3) #16
  ret i32 %10
}

; Function Attrs: null_pointer_is_valid sspstrong uwtable
define internal zeroext i8 @Dot11DecryptFtDerivePtk(ptr noundef %0, ptr noundef %1, ptr noundef %2, ptr noundef %3, ptr noundef %4, ptr noundef %5, i64 noundef %6, ptr noundef %7, i64 noundef %8, i32 noundef %9, i32 noundef %10, ptr noundef %11, ptr noundef %12) #0 {
  %14 = alloca i8, align 1
  %15 = alloca ptr, align 8
  %16 = alloca ptr, align 8
  %17 = alloca ptr, align 8
  %18 = alloca ptr, align 8
  %19 = alloca ptr, align 8
  %20 = alloca ptr, align 8
  %21 = alloca i64, align 8
  %22 = alloca ptr, align 8
  %23 = alloca i64, align 8
  %24 = alloca i32, align 4
  %25 = alloca i32, align 4
  %26 = alloca ptr, align 8
  %27 = alloca ptr, align 8
  %28 = alloca i32, align 4
  %29 = alloca [48 x i8], align 16
  %30 = alloca [48 x i8], align 16
  %31 = alloca [16 x i8], align 16
  %32 = alloca [16 x i8], align 16
  %33 = alloca [16 x i8], align 16
  %34 = alloca i64, align 8
  %35 = alloca i64, align 8
  %36 = alloca ptr, align 8
  %37 = alloca i64, align 8
  %38 = alloca i32, align 4
  %39 = alloca i32, align 4
  store ptr %0, ptr %15, align 8
  store ptr %1, ptr %16, align 8
  store ptr %2, ptr %17, align 8
  store ptr %3, ptr %18, align 8
  store ptr %4, ptr %19, align 8
  store ptr %5, ptr %20, align 8
  store i64 %6, ptr %21, align 8
  store ptr %7, ptr %22, align 8
  store i64 %8, ptr %23, align 8
  store i32 %9, ptr %24, align 4
  store i32 %10, ptr %25, align 4
  store ptr %11, ptr %26, align 8
  store ptr %12, ptr %27, align 8
  call void @llvm.lifetime.start.p0(i64 4, ptr %28) #16
  %40 = load i32, ptr %24, align 4
  %41 = call i32 @Dot11DecryptGetHashAlgoFromAkm(i32 noundef %40)
  store i32 %41, ptr %28, align 4
  call void @llvm.lifetime.start.p0(i64 48, ptr %29) #16
  call void @llvm.lifetime.start.p0(i64 48, ptr %30) #16
  call void @llvm.lifetime.start.p0(i64 16, ptr %31) #16
  call void @llvm.memset.p0.i64(ptr align 16 %31, i8 0, i64 16, i1 false)
  call void @llvm.lifetime.start.p0(i64 16, ptr %32) #16
  call void @llvm.memset.p0.i64(ptr align 16 %32, i8 0, i64 16, i1 false)
  call void @llvm.lifetime.start.p0(i64 16, ptr %33) #16
  call void @llvm.lifetime.start.p0(i64 8, ptr %34) #16
  store i64 0, ptr %34, align 8
  call void @llvm.lifetime.start.p0(i64 8, ptr %35) #16
  store i64 0, ptr %35, align 8
  call void @llvm.lifetime.start.p0(i64 8, ptr %36) #16
  store ptr null, ptr %36, align 8
  call void @llvm.lifetime.start.p0(i64 8, ptr %37) #16
  call void @llvm.lifetime.start.p0(i64 4, ptr %38) #16
  %42 = load ptr, ptr %16, align 8
  %43 = icmp ne ptr %42, null
  br i1 %43, label %44, label %65

44:                                               ; preds = %13
  %45 = load ptr, ptr %17, align 8
  %46 = icmp ne ptr %45, null
  br i1 %46, label %47, label %65

47:                                               ; preds = %44
  %48 = load ptr, ptr %18, align 8
  %49 = icmp ne ptr %48, null
  br i1 %49, label %50, label %65

50:                                               ; preds = %47
  %51 = load ptr, ptr %19, align 8
  %52 = icmp ne ptr %51, null
  br i1 %52, label %53, label %65

53:                                               ; preds = %50
  %54 = load ptr, ptr %20, align 8
  %55 = icmp ne ptr %54, null
  br i1 %55, label %56, label %65

56:                                               ; preds = %53
  %57 = load ptr, ptr %22, align 8
  %58 = icmp ne ptr %57, null
  br i1 %58, label %59, label %65

59:                                               ; preds = %56
  %60 = load ptr, ptr %26, align 8
  %61 = icmp ne ptr %60, null
  br i1 %61, label %62, label %65

62:                                               ; preds = %59
  %63 = load ptr, ptr %27, align 8
  %64 = icmp ne ptr %63, null
  br i1 %64, label %69, label %65

65:                                               ; preds = %62, %59, %56, %53, %50, %47, %44, %13
  br label %66

66:                                               ; preds = %65
  call void (ptr, i32, ptr, i64, ptr, ptr, ...) @ws_log_full(ptr noundef @.str, i32 noundef 5, ptr noundef @.str.1, i64 noundef 2612, ptr noundef @__func__.Dot11DecryptFtDerivePtk, ptr noundef @.str.50)
  br label %67

67:                                               ; preds = %66
  br label %68

68:                                               ; preds = %67
  store i8 4, ptr %14, align 1
  store i32 1, ptr %39, align 4
  br label %188

69:                                               ; preds = %62
  %70 = load i32, ptr %24, align 4
  %71 = load i32, ptr %25, align 4
  %72 = call i32 @Dot11DecryptGetPtkLen(i32 noundef %70, i32 noundef %71)
  store i32 %72, ptr %38, align 4
  %73 = load i32, ptr %38, align 4
  %74 = icmp eq i32 %73, -1
  br i1 %74, label %75, label %79

75:                                               ; preds = %69
  br label %76

76:                                               ; preds = %75
  call void (ptr, i32, ptr, i64, ptr, ptr, ...) @ws_log_full(ptr noundef @.str, i32 noundef 5, ptr noundef @.str.1, i64 noundef 2617, ptr noundef @__func__.Dot11DecryptFtDerivePtk, ptr noundef @.str.51)
  br label %77

77:                                               ; preds = %76
  br label %78

78:                                               ; preds = %77
  store i8 4, ptr %14, align 1
  store i32 1, ptr %39, align 4
  br label %188

79:                                               ; preds = %69
  %80 = load i32, ptr %38, align 4
  %81 = sdiv i32 %80, 8
  %82 = sext i32 %81 to i64
  %83 = load ptr, ptr %27, align 8
  store i64 %82, ptr %83, align 8
  %84 = load ptr, ptr %17, align 8
  %85 = getelementptr inbounds nuw %struct._DOT11DECRYPT_KEY_ITEM, ptr %84, i32 0, i32 0
  %86 = load i8, ptr %85, align 8
  %87 = zext i8 %86 to i32
  %88 = icmp eq i32 %87, 7
  br i1 %88, label %89, label %101

89:                                               ; preds = %79
  %90 = load ptr, ptr %17, align 8
  %91 = getelementptr inbounds nuw %struct._DOT11DECRYPT_KEY_ITEM, ptr %90, i32 0, i32 3
  %92 = getelementptr inbounds nuw %struct.DOT11DECRYPT_KEY_ITEMDATA_MSK, ptr %91, i32 0, i32 0
  %93 = getelementptr inbounds [128 x i8], ptr %92, i64 0, i64 0
  %94 = load ptr, ptr %17, align 8
  %95 = getelementptr inbounds nuw %struct._DOT11DECRYPT_KEY_ITEM, ptr %94, i32 0, i32 3
  %96 = getelementptr inbounds nuw %struct.DOT11DECRYPT_KEY_ITEMDATA_MSK, ptr %95, i32 0, i32 1
  %97 = load i8, ptr %96, align 1
  %98 = zext i8 %97 to i64
  %99 = load i32, ptr %24, align 4
  %100 = call ptr @Dot11DecryptGetXXKeyFromMSK(ptr noundef %93, i64 noundef %98, i32 noundef %99, ptr noundef %37)
  store ptr %100, ptr %36, align 8
  br label %101

101:                                              ; preds = %89, %79
  %102 = load ptr, ptr %36, align 8
  %103 = icmp ne ptr %102, null
  br i1 %103, label %121, label %104

104:                                              ; preds = %101
  %105 = load ptr, ptr %17, align 8
  %106 = getelementptr inbounds nuw %struct._DOT11DECRYPT_KEY_ITEM, ptr %105, i32 0, i32 1
  %107 = getelementptr inbounds nuw %struct.DOT11DECRYPT_KEY_ITEMDATA_WPA, ptr %106, i32 0, i32 2
  %108 = load i8, ptr %107, align 8
  %109 = zext i8 %108 to i32
  %110 = icmp sgt i32 %109, 0
  br i1 %110, label %111, label %121

111:                                              ; preds = %104
  %112 = load ptr, ptr %17, align 8
  %113 = getelementptr inbounds nuw %struct._DOT11DECRYPT_KEY_ITEM, ptr %112, i32 0, i32 1
  %114 = getelementptr inbounds nuw %struct.DOT11DECRYPT_KEY_ITEMDATA_WPA, ptr %113, i32 0, i32 0
  %115 = getelementptr inbounds [48 x i8], ptr %114, i64 0, i64 0
  store ptr %115, ptr %36, align 8
  %116 = load ptr, ptr %17, align 8
  %117 = getelementptr inbounds nuw %struct._DOT11DECRYPT_KEY_ITEM, ptr %116, i32 0, i32 1
  %118 = getelementptr inbounds nuw %struct.DOT11DECRYPT_KEY_ITEMDATA_WPA, ptr %117, i32 0, i32 2
  %119 = load i8, ptr %118, align 8
  %120 = zext i8 %119 to i64
  store i64 %120, ptr %37, align 8
  br label %121

121:                                              ; preds = %111, %104, %101
  %122 = load ptr, ptr %36, align 8
  %123 = icmp ne ptr %122, null
  br i1 %123, label %128, label %124

124:                                              ; preds = %121
  br label %125

125:                                              ; preds = %124
  br label %126

126:                                              ; preds = %125
  br label %127

127:                                              ; preds = %126
  store i8 4, ptr %14, align 1
  store i32 1, ptr %39, align 4
  br label %188

128:                                              ; preds = %121
  %129 = load ptr, ptr %36, align 8
  %130 = load i64, ptr %37, align 8
  %131 = load ptr, ptr %15, align 8
  %132 = getelementptr inbounds nuw %struct._DOT11DECRYPT_CONTEXT, ptr %131, i32 0, i32 3
  %133 = getelementptr inbounds [32 x i8], ptr %132, i64 0, i64 0
  %134 = load ptr, ptr %15, align 8
  %135 = getelementptr inbounds nuw %struct._DOT11DECRYPT_CONTEXT, ptr %134, i32 0, i32 4
  %136 = load i64, ptr %135, align 8
  %137 = load ptr, ptr %18, align 8
  %138 = load ptr, ptr %20, align 8
  %139 = load i64, ptr %21, align 8
  %140 = load ptr, ptr %16, align 8
  %141 = getelementptr inbounds nuw %struct._DOT11DECRYPT_SEC_ASSOCIATION, ptr %140, i32 0, i32 1
  %142 = getelementptr inbounds nuw %struct._DOT11DECRYPT_SEC_ASSOCIATION_ID, ptr %141, i32 0, i32 1
  %143 = getelementptr inbounds [6 x i8], ptr %142, i64 0, i64 0
  %144 = load i32, ptr %28, align 4
  %145 = getelementptr inbounds [48 x i8], ptr %29, i64 0, i64 0
  %146 = getelementptr inbounds [16 x i8], ptr %31, i64 0, i64 0
  %147 = call zeroext i1 @dot11decrypt_derive_pmk_r0(ptr noundef %129, i64 noundef %130, ptr noundef %133, i64 noundef %136, ptr noundef %137, ptr noundef %138, i64 noundef %139, ptr noundef %143, i32 noundef %144, ptr noundef %145, ptr noundef %34, ptr noundef %146)
  br i1 %147, label %149, label %148

148:                                              ; preds = %128
  store i8 1, ptr %14, align 1
  store i32 1, ptr %39, align 4
  br label %188

149:                                              ; preds = %128
  %150 = getelementptr inbounds [48 x i8], ptr %29, i64 0, i64 0
  %151 = load i64, ptr %34, align 8
  %152 = getelementptr inbounds [16 x i8], ptr %31, i64 0, i64 0
  %153 = load ptr, ptr %22, align 8
  %154 = load ptr, ptr %16, align 8
  %155 = getelementptr inbounds nuw %struct._DOT11DECRYPT_SEC_ASSOCIATION, ptr %154, i32 0, i32 1
  %156 = getelementptr inbounds nuw %struct._DOT11DECRYPT_SEC_ASSOCIATION_ID, ptr %155, i32 0, i32 1
  %157 = getelementptr inbounds [6 x i8], ptr %156, i64 0, i64 0
  %158 = load i32, ptr %28, align 4
  %159 = getelementptr inbounds [48 x i8], ptr %30, i64 0, i64 0
  %160 = getelementptr inbounds [16 x i8], ptr %32, i64 0, i64 0
  %161 = call zeroext i1 @dot11decrypt_derive_pmk_r1(ptr noundef %150, i64 noundef %151, ptr noundef %152, ptr noundef %153, ptr noundef %157, i32 noundef %158, ptr noundef %159, ptr noundef %35, ptr noundef %160)
  br i1 %161, label %163, label %162

162:                                              ; preds = %149
  store i8 1, ptr %14, align 1
  store i32 1, ptr %39, align 4
  br label %188

163:                                              ; preds = %149
  %164 = getelementptr inbounds [48 x i8], ptr %30, i64 0, i64 0
  %165 = load i64, ptr %35, align 8
  %166 = getelementptr inbounds [16 x i8], ptr %32, i64 0, i64 0
  %167 = load ptr, ptr %19, align 8
  %168 = load ptr, ptr %16, align 8
  %169 = getelementptr inbounds nuw %struct._DOT11DECRYPT_SEC_ASSOCIATION, ptr %168, i32 0, i32 5
  %170 = getelementptr inbounds nuw %struct.anon, ptr %169, i32 0, i32 1
  %171 = getelementptr inbounds [32 x i8], ptr %170, i64 0, i64 0
  %172 = load ptr, ptr %16, align 8
  %173 = getelementptr inbounds nuw %struct._DOT11DECRYPT_SEC_ASSOCIATION, ptr %172, i32 0, i32 1
  %174 = getelementptr inbounds nuw %struct._DOT11DECRYPT_SEC_ASSOCIATION_ID, ptr %173, i32 0, i32 0
  %175 = getelementptr inbounds [6 x i8], ptr %174, i64 0, i64 0
  %176 = load ptr, ptr %16, align 8
  %177 = getelementptr inbounds nuw %struct._DOT11DECRYPT_SEC_ASSOCIATION, ptr %176, i32 0, i32 1
  %178 = getelementptr inbounds nuw %struct._DOT11DECRYPT_SEC_ASSOCIATION_ID, ptr %177, i32 0, i32 1
  %179 = getelementptr inbounds [6 x i8], ptr %178, i64 0, i64 0
  %180 = load i32, ptr %28, align 4
  %181 = load ptr, ptr %26, align 8
  %182 = load ptr, ptr %27, align 8
  %183 = load i64, ptr %182, align 8
  %184 = getelementptr inbounds [16 x i8], ptr %33, i64 0, i64 0
  %185 = call zeroext i1 @dot11decrypt_derive_ft_ptk(ptr noundef %164, i64 noundef %165, ptr noundef %166, ptr noundef %167, ptr noundef %171, ptr noundef %175, ptr noundef %179, i32 noundef %180, ptr noundef %181, i64 noundef %183, ptr noundef %184)
  br i1 %185, label %187, label %186

186:                                              ; preds = %163
  store i8 1, ptr %14, align 1
  store i32 1, ptr %39, align 4
  br label %188

187:                                              ; preds = %163
  store i8 0, ptr %14, align 1
  store i32 1, ptr %39, align 4
  br label %188

188:                                              ; preds = %187, %186, %162, %148, %127, %78, %68
  call void @llvm.lifetime.end.p0(i64 4, ptr %38) #16
  call void @llvm.lifetime.end.p0(i64 8, ptr %37) #16
  call void @llvm.lifetime.end.p0(i64 8, ptr %36) #16
  call void @llvm.lifetime.end.p0(i64 8, ptr %35) #16
  call void @llvm.lifetime.end.p0(i64 8, ptr %34) #16
  call void @llvm.lifetime.end.p0(i64 16, ptr %33) #16
  call void @llvm.lifetime.end.p0(i64 16, ptr %32) #16
  call void @llvm.lifetime.end.p0(i64 16, ptr %31) #16
  call void @llvm.lifetime.end.p0(i64 48, ptr %30) #16
  call void @llvm.lifetime.end.p0(i64 48, ptr %29) #16
  call void @llvm.lifetime.end.p0(i64 4, ptr %28) #16
  %189 = load i8, ptr %14, align 1
  ret i8 %189
}