; Function Attrs: null_pointer_is_valid sspstrong uwtable
define internal fastcc zeroext range(i8 0, 5) i8 @Dot11DecryptFtDerivePtk(ptr noundef %0, ptr noundef nonnull %1, ptr noundef %2, ptr noundef %3, ptr noundef %4, ptr noundef %5, i64 noundef range(i64 0, 256) %6, ptr noundef %7, i32 noundef range(i32 0, 256) %8, i32 noundef range(i32 0, 256) %9, ptr noundef %10, ptr noundef captures(address_is_null) %11) unnamed_addr #0 {
  %13 = alloca [48 x i8], align 16
  %14 = alloca [48 x i8], align 16
  %15 = alloca [16 x i8], align 16
  %16 = alloca [16 x i8], align 16
  %17 = alloca [16 x i8], align 16
  %18 = alloca i64, align 8
  %19 = alloca i64, align 8
  %trunc.i = trunc nuw i32 %8 to i8
  %switch.tableidx = add i8 %trunc.i, -1
  %20 = icmp ult i8 %switch.tableidx, 18
  br i1 %20, label %switch.lookup, label %Dot11DecryptGetHashAlgoFromAkm.exit

switch.lookup:                                    ; preds = %12
  %21 = zext nneg i8 %switch.tableidx to i64
  %switch.gep = getelementptr inbounds nuw [18 x i32], ptr @switch.table.Dot11DecryptFtDerivePtk, i64 0, i64 %21
  %switch.load = load i32, ptr %switch.gep, align 4
  br label %Dot11DecryptGetHashAlgoFromAkm.exit

Dot11DecryptGetHashAlgoFromAkm.exit:              ; preds = %switch.lookup, %12
  %.0.i = phi i32 [ -1, %12 ], [ %switch.load, %switch.lookup ]
  call void @llvm.lifetime.start.p0(i64 48, ptr nonnull %13) #15
  call void @llvm.lifetime.start.p0(i64 48, ptr nonnull %14) #15
  call void @llvm.lifetime.start.p0(i64 16, ptr nonnull %15) #15
  call void @llvm.memset.p0.i64(ptr noundef nonnull align 16 dereferenceable(16) %15, i8 0, i64 16, i1 false)
  call void @llvm.lifetime.start.p0(i64 16, ptr nonnull %16) #15
  call void @llvm.memset.p0.i64(ptr noundef nonnull align 16 dereferenceable(16) %16, i8 0, i64 16, i1 false)
  call void @llvm.lifetime.start.p0(i64 16, ptr nonnull %17) #15
  call void @llvm.lifetime.start.p0(i64 8, ptr nonnull %18) #15
  store i64 0, ptr %18, align 8
  call void @llvm.lifetime.start.p0(i64 8, ptr nonnull %19) #15
  store i64 0, ptr %19, align 8
  %22 = icmp ne ptr %2, null
  %23 = icmp ne ptr %3, null
  %or.cond3 = and i1 %22, %23
  %24 = icmp ne ptr %4, null
  %or.cond5 = and i1 %or.cond3, %24
  %25 = icmp ne ptr %5, null
  %or.cond7 = and i1 %or.cond5, %25
  %26 = icmp ne ptr %7, null
  %or.cond9 = and i1 %or.cond7, %26
  %27 = icmp ne ptr %10, null
  %or.cond11 = and i1 %or.cond9, %27
  %28 = icmp ne ptr %11, null
  %or.cond13 = and i1 %or.cond11, %28
  br i1 %or.cond13, label %30, label %29

29:                                               ; preds = %Dot11DecryptGetHashAlgoFromAkm.exit
  tail call void (ptr, i32, ptr, i64, ptr, ptr, ...) @ws_log_full(ptr noundef nonnull @.str, i32 noundef 5, ptr noundef nonnull @.str.1, i64 noundef 2612, ptr noundef nonnull @__func__.Dot11DecryptFtDerivePtk, ptr noundef nonnull @.str.50)
  br label %67

30:                                               ; preds = %Dot11DecryptGetHashAlgoFromAkm.exit
  %31 = tail call fastcc i32 @Dot11DecryptGetPtkLen(i32 noundef %8, i32 noundef %9)
  %32 = icmp eq i32 %31, -1
  br i1 %32, label %33, label %34

33:                                               ; preds = %30
  tail call void (ptr, i32, ptr, i64, ptr, ptr, ...) @ws_log_full(ptr noundef nonnull @.str, i32 noundef 5, ptr noundef nonnull @.str.1, i64 noundef 2617, ptr noundef nonnull @__func__.Dot11DecryptFtDerivePtk, ptr noundef nonnull @.str.51)
  br label %67

34:                                               ; preds = %30
  %35 = lshr i32 %31, 3
  %36 = zext nneg i32 %35 to i64
  store i64 %36, ptr %11, align 8
  %37 = load i8, ptr %2, align 8
  %38 = icmp eq i8 %37, 7
  br i1 %38, label %39, label %Dot11DecryptGetXXKeyFromMSK.exit.thread

39:                                               ; preds = %34
  %40 = getelementptr inbounds nuw i8, ptr %2, i64 313
  %41 = load i8, ptr %40, align 1
  switch i8 %trunc.i, label %Dot11DecryptGetXXKeyFromMSK.exit.thread [
    i8 3, label %42
    i8 13, label %45
  ]

42:                                               ; preds = %39
  %43 = icmp ult i8 %41, 64
  %44 = getelementptr i8, ptr %2, i64 217
  %.not = icmp eq ptr %44, null
  %or.cond = or i1 %.not, %43
  br i1 %or.cond, label %Dot11DecryptGetXXKeyFromMSK.exit.thread, label %Dot11DecryptGetXXKeyFromMSK.exit.thread67

45:                                               ; preds = %39
  %46 = getelementptr inbounds nuw i8, ptr %2, i64 185
  %47 = icmp ult i8 %41, 48
  br i1 %47, label %Dot11DecryptGetXXKeyFromMSK.exit.thread, label %Dot11DecryptGetXXKeyFromMSK.exit.thread67

Dot11DecryptGetXXKeyFromMSK.exit.thread:          ; preds = %39, %45, %42, %34
  %48 = getelementptr inbounds nuw i8, ptr %2, i64 144
  %49 = load i8, ptr %48, align 8
  %.not57 = icmp eq i8 %49, 0
  br i1 %.not57, label %67, label %50

50:                                               ; preds = %Dot11DecryptGetXXKeyFromMSK.exit.thread
  %51 = getelementptr inbounds nuw i8, ptr %2, i64 8
  %52 = zext i8 %49 to i64
  br label %Dot11DecryptGetXXKeyFromMSK.exit.thread67

Dot11DecryptGetXXKeyFromMSK.exit.thread67:        ; preds = %42, %45, %50
  %.162.ph = phi i64 [ %52, %50 ], [ 48, %45 ], [ 32, %42 ]
  %.1.ph = phi ptr [ %51, %50 ], [ %46, %45 ], [ %44, %42 ]
  %53 = getelementptr inbounds nuw i8, ptr %0, i64 27664
  %54 = getelementptr inbounds nuw i8, ptr %0, i64 27696
  %55 = load i64, ptr %54, align 8
  %56 = getelementptr inbounds nuw i8, ptr %1, i64 8
  %57 = getelementptr inbounds nuw i8, ptr %1, i64 14
  %58 = call zeroext i1 @dot11decrypt_derive_pmk_r0(ptr noundef nonnull %.1.ph, i64 noundef %.162.ph, ptr noundef nonnull %53, i64 noundef %55, ptr noundef nonnull %3, ptr noundef nonnull %5, i64 noundef %6, ptr noundef nonnull %57, i32 noundef %.0.i, ptr noundef nonnull %13, ptr noundef nonnull %18, ptr noundef nonnull %15)
  br i1 %58, label %59, label %67

59:                                               ; preds = %Dot11DecryptGetXXKeyFromMSK.exit.thread67
  %60 = load i64, ptr %18, align 8
  %61 = call zeroext i1 @dot11decrypt_derive_pmk_r1(ptr noundef nonnull %13, i64 noundef %60, ptr noundef nonnull %15, ptr noundef nonnull %7, ptr noundef nonnull %57, i32 noundef %.0.i, ptr noundef nonnull %14, ptr noundef nonnull %19, ptr noundef nonnull %16)
  br i1 %61, label %62, label %67

62:                                               ; preds = %59
  %63 = load i64, ptr %19, align 8
  %64 = getelementptr inbounds nuw i8, ptr %1, i64 37
  %65 = load i64, ptr %11, align 8
  %66 = call zeroext i1 @dot11decrypt_derive_ft_ptk(ptr noundef nonnull %14, i64 noundef %63, ptr noundef nonnull %16, ptr noundef nonnull %4, ptr noundef nonnull %64, ptr noundef nonnull %56, ptr noundef nonnull %57, i32 noundef %.0.i, ptr noundef nonnull %10, i64 noundef %65, ptr noundef nonnull %17)
  %not. = xor i1 %66, true
  %. = zext i1 %not. to i8
  br label %67

67:                                               ; preds = %Dot11DecryptGetXXKeyFromMSK.exit.thread, %62, %59, %Dot11DecryptGetXXKeyFromMSK.exit.thread67, %33, %29
  %.0 = phi i8 [ 4, %33 ], [ 4, %29 ], [ 1, %Dot11DecryptGetXXKeyFromMSK.exit.thread67 ], [ 1, %59 ], [ %., %62 ], [ 4, %Dot11DecryptGetXXKeyFromMSK.exit.thread ]
  call void @llvm.lifetime.end.p0(i64 8, ptr nonnull %19) #15
  call void @llvm.lifetime.end.p0(i64 8, ptr nonnull %18) #15
  call void @llvm.lifetime.end.p0(i64 16, ptr nonnull %17) #15
  call void @llvm.lifetime.end.p0(i64 16, ptr nonnull %16) #15
  call void @llvm.lifetime.end.p0(i64 16, ptr nonnull %15) #15
  call void @llvm.lifetime.end.p0(i64 48, ptr nonnull %14) #15
  call void @llvm.lifetime.end.p0(i64 48, ptr nonnull %13) #15
  ret i8 %.0
}